(lp0
I72
aI173
aI558
aI823
aI903
aI962
aI1294
aI1347
aI1354
aI1415
aI1447
aI1619
aI1698
aI1779
aI2071
aI2643
aI2753
aI2929
aI3030
aI3112
aI3230
aI3255
aI3313
aI3367
aI3459
aI3463
aI3528
aI3675
aI4128
aI4223
aI4237
aI4545
aI4571
aI4604
aI4620
aI4846
aI5087
aI5149
aI5289
aI5319
aI5563
aI5579
aI5604
aI5903
aI5913
aI6133
aI6148
aI6400
aI6526
aI6558
aI6782
aI7057
aI7131
aI7275
aI7289
aI7381
aI7577
aI7584
aI7646
aI7680
aI7712
aI7760
aI7786
aI8064
aI8094
aI8203
aI8599
aI8673
aI8696
aI8791
aI8995
aI9038
aI9098
aI9153
aI9203
aI9255
aI9288
aI9423
aI9515
aI9617
aI9650
aI9682
aI9864
aI9951
aI9968
aI10430
aI10497
aI10585
aI10822
aI10848
aI10885
aI10999
aI11313
aI11337
aI11379
aI11501
aI12074
aI12077
aI12199
aI12304
aI12580
aI12628
aI12705
aI12750
aI12891
aI12903
aI12982
aI12985
aI12989
aI13189
aI13363
aI13421
aI13462
aI13506
aI13588
aI13941
aI13957
aI14015
aI14073
aI14285
aI14485
aI14846
aI14858
aI14954
aI15522
aI15714
aI15823
aI15892
aI16075
aI16495
aI16566
aI16598
aI16616
aI16687
aI17171
aI17402
aI17475
aI17733
aI17749
aI17857
aI17866
aI17950
aI18065
aI18066
a.